target datalayout = "e-m:e-p270:32:32-p271:32:32-p272:64:64-i64:64-i128:128-f80:128-n8:16:32:64-S128"
target triple = "x86_64-pc-linux-gnu"

%struct._zend_executor_globals = type { %struct._zval_struct, %struct._zval_struct, [32 x ptr], ptr, ptr, %struct._zend_array, %struct._zend_array, ptr, i32, i8, %struct._zval_struct, i32, ptr, ptr, ptr, ptr, ptr, ptr, i64, ptr, ptr, i32, ptr, i32, i64, i32, i32, i32, i8, i8, %struct.zend_atomic_bool_s, %struct.zend_atomic_bool_s, ptr, i64, ptr, ptr, %struct._zend_array, %struct._zend_array, i32, i8, %struct._zval_struct, %struct._zval_struct, %struct._zend_stack, %struct._zend_stack, %struct._zend_stack, ptr, i32, i32, i64, ptr, ptr, ptr, %struct._zend_objects_store, %struct._zend_lazy_objects_store, ptr, ptr, ptr, [3 x %struct._zend_op], ptr, i8, i8, i64, i32, i32, ptr, [16 x %struct._HashTableIterator], ptr, %union._zend_function, %struct._zend_op, %struct._zend_array, i64, %struct.zend_get_gc_buffer, ptr, ptr, ptr, i64, i8, i32, ptr, ptr, i64, %struct._zend_call_stack, i64, i64, %struct._zend_strtod_state, [6 x ptr] }
%struct.zend_atomic_bool_s = type { i8 }
%struct._zval_struct = type { %union._zend_value, %union.anon.9, %union.anon.12 }
%union._zend_value = type { i64 }
%union.anon.9 = type { i32 }
%union.anon.12 = type { i32 }
%struct._zend_stack = type { i32, i32, i32, ptr }
%struct._zend_objects_store = type { ptr, i32, i32, i32 }
%struct._zend_lazy_objects_store = type { %struct._zend_array }
%struct._HashTableIterator = type { ptr, i32, i32 }
%union._zend_function = type { %struct._zend_op_array }
%struct._zend_op_array = type { i8, [3 x i8], i32, ptr, ptr, ptr, i32, i32, ptr, ptr, ptr, ptr, i32, ptr, i32, i32, i32, ptr, ptr, ptr, ptr, ptr, i32, i32, ptr, ptr, ptr, i32, i32, i32, i32, ptr, ptr, [6 x ptr] }
%struct._zend_op = type { ptr, %union._znode_op, %union._znode_op, %union._znode_op, i32, i32, i8, i8, i8, i8 }
%union._znode_op = type { i32 }
%struct._zend_array = type { %struct._zend_refcounted_h, %union.anon.1, i32, %union.anon.2, i32, i32, i32, i32, i64, ptr }
%struct._zend_refcounted_h = type { i32, %union.anon.0 }
%union.anon.0 = type { i32 }
%union.anon.1 = type { i32 }
%union.anon.2 = type { ptr }
%struct.zend_get_gc_buffer = type { ptr, ptr, ptr }
%struct._zend_call_stack = type { ptr, i64 }
%struct._zend_strtod_state = type { [8 x ptr], ptr, ptr }
%struct.zend_type = type { ptr, i32 }
%struct._zend_class_entry = type { i8, ptr, %union.anon, i32, i32, i32, i32, ptr, ptr, ptr, %struct._zend_array, %struct._zend_array, %struct._zend_array, ptr, ptr, ptr, ptr, ptr, ptr, ptr, ptr, ptr, ptr, ptr, ptr, ptr, ptr, ptr, ptr, ptr, ptr, ptr, %union.anon.3, ptr, ptr, ptr, ptr, i32, i32, i32, i32, %union.anon.4, ptr, ptr, ptr, ptr, i32, ptr, ptr, %union.anon.5 }
%union.anon = type { ptr }
%union.anon.3 = type { ptr }
%union.anon.4 = type { ptr }
%union.anon.5 = type { %struct.anon.6 }
%struct.anon.6 = type { ptr, i32, i32 }
%struct.reflection_object = type { %struct._zval_struct, ptr, ptr, i32, %struct._zend_object }
%struct._zend_object = type { %struct._zend_refcounted_h, i32, i32, ptr, ptr, ptr, [1 x %struct._zval_struct] }
%struct._zend_string = type { %struct._zend_refcounted_h, i64, i64, [1 x i8] }
%struct._zend_execute_data = type { ptr, ptr, ptr, ptr, %struct._zval_struct, ptr, ptr, ptr, ptr }
%struct.anon.10 = type { i8, i8, %union.anon.11 }
%union.anon.11 = type { i16 }
%struct._zend_refcounted = type { %struct._zend_refcounted_h }
%struct._zend_reference = type { %struct._zend_refcounted_h, %struct._zval_struct, %union.zend_property_info_source_list }
%union.zend_property_info_source_list = type { ptr }
%struct._zend_property_info = type { i32, i32, ptr, ptr, ptr, ptr, %struct.zend_type, ptr, ptr }

@reflection_exception_ptr = dso_local global ptr null, align 8
@executor_globals = external global %struct._zend_executor_globals, align 8
@.str.10 = private unnamed_addr constant [57 x i8] c"Internal error: Failed to retrieve the reflection object\00", align 1
@.str.42 = private unnamed_addr constant [3 x i8] c"Sz\00", align 1
@.str.43 = private unnamed_addr constant [43 x i8] c"Class %s does not have a property named %s\00", align 1

; Function Attrs: alwaysinline nounwind uwtable
define internal i32 @zend_gc_addref(ptr noundef %0) #4 {
  %2 = alloca ptr, align 8
  store ptr %0, ptr %2, align 8, !tbaa !44
  br label %3

3:                                                ; preds = %1
  br label %4

4:                                                ; preds = %3
  %5 = load ptr, ptr %2, align 8, !tbaa !44
  %6 = getelementptr inbounds nuw %struct._zend_refcounted_h, ptr %5, i32 0, i32 0
  %7 = load i32, ptr %6, align 4, !tbaa !46
  %8 = add i32 %7, 1
  store i32 %8, ptr %6, align 4, !tbaa !46
  ret i32 %8
}

; Function Attrs: alwaysinline nounwind uwtable
define internal zeroext i8 @zval_get_type(ptr noundef %0) #4 {
  %2 = alloca ptr, align 8
  store ptr %0, ptr %2, align 8, !tbaa !9
  %3 = load ptr, ptr %2, align 8, !tbaa !9
  %4 = getelementptr inbounds nuw %struct._zval_struct, ptr %3, i32 0, i32 1
  %5 = getelementptr inbounds nuw %struct.anon.10, ptr %4, i32 0, i32 0
  %6 = load i8, ptr %5, align 8, !tbaa !29
  ret i8 %6
}

; Function Attrs: inlinehint nounwind uwtable
define internal ptr @reflection_object_from_obj(ptr noundef %0) #3 {
  %2 = alloca ptr, align 8
  store ptr %0, ptr %2, align 8, !tbaa !39
  %3 = load ptr, ptr %2, align 8, !tbaa !39
  %4 = getelementptr inbounds i8, ptr %3, i64 -40
  ret ptr %4
}

; Function Attrs: nounwind uwtable
define hidden void @zim_ReflectionClass_setStaticPropertyValue(ptr noundef %0, ptr noundef %1) #0 {
  %3 = alloca ptr, align 8
  %4 = alloca ptr, align 8
  %5 = alloca ptr, align 8
  %6 = alloca ptr, align 8
  %7 = alloca ptr, align 8
  %8 = alloca ptr, align 8
  %9 = alloca ptr, align 8
  %10 = alloca ptr, align 8
  %11 = alloca ptr, align 8
  %12 = alloca i32, align 4
  %13 = alloca ptr, align 8
  %14 = alloca ptr, align 8
  %15 = alloca ptr, align 8
  %16 = alloca ptr, align 8
  %17 = alloca i32, align 4
  store ptr %0, ptr %3, align 8, !tbaa !47
  store ptr %1, ptr %4, align 8, !tbaa !9
  call void @llvm.lifetime.start.p0(i64 8, ptr %5) #14
  call void @llvm.lifetime.start.p0(i64 8, ptr %6) #14
  call void @llvm.lifetime.start.p0(i64 8, ptr %7) #14
  call void @llvm.lifetime.start.p0(i64 8, ptr %8) #14
  call void @llvm.lifetime.start.p0(i64 8, ptr %9) #14
  call void @llvm.lifetime.start.p0(i64 8, ptr %10) #14
  call void @llvm.lifetime.start.p0(i64 8, ptr %11) #14
  %18 = load ptr, ptr %3, align 8, !tbaa !47
  %19 = getelementptr inbounds nuw %struct._zend_execute_data, ptr %18, i32 0, i32 4
  %20 = getelementptr inbounds nuw %struct._zval_struct, ptr %19, i32 0, i32 2
  %21 = load i32, ptr %20, align 4, !tbaa !29
  %22 = call i32 (i32, ptr, ...) @zend_parse_parameters(i32 noundef %21, ptr noundef @.str.42, ptr noundef %9, ptr noundef %11)
  %23 = icmp eq i32 %22, -1
  br i1 %23, label %24, label %30

24:                                               ; preds = %2
  br label %25

25:                                               ; preds = %24
  %26 = load ptr, ptr getelementptr inbounds nuw (%struct._zend_executor_globals, ptr @executor_globals, i32 0, i32 54), align 8, !tbaa !49
  %27 = icmp ne ptr %26, null
  call void @llvm.assume(i1 %27)
  store i32 1, ptr %12, align 4
  br label %174

28:                                               ; No predecessors!
  br label %29

29:                                               ; preds = %28
  br label %30

30:                                               ; preds = %29, %2
  br label %31

31:                                               ; preds = %30
  br label %32

32:                                               ; preds = %31
  %33 = load ptr, ptr %3, align 8, !tbaa !47
  %34 = getelementptr inbounds nuw %struct._zend_execute_data, ptr %33, i32 0, i32 4
  %35 = getelementptr inbounds nuw %struct._zval_struct, ptr %34, i32 0, i32 0
  %36 = load ptr, ptr %35, align 8, !tbaa !29
  %37 = call ptr @reflection_object_from_obj(ptr noundef %36)
  store ptr %37, ptr %5, align 8, !tbaa !30
  %38 = load ptr, ptr %5, align 8, !tbaa !30
  %39 = getelementptr inbounds nuw %struct.reflection_object, ptr %38, i32 0, i32 1
  %40 = load ptr, ptr %39, align 8, !tbaa !31
  %41 = icmp eq ptr %40, null
  br i1 %41, label %42, label %63

42:                                               ; preds = %32
  %43 = load ptr, ptr getelementptr inbounds nuw (%struct._zend_executor_globals, ptr @executor_globals, i32 0, i32 54), align 8, !tbaa !49
  %44 = icmp ne ptr %43, null
  br i1 %44, label %45, label %57

45:                                               ; preds = %42
  %46 = load ptr, ptr getelementptr inbounds nuw (%struct._zend_executor_globals, ptr @executor_globals, i32 0, i32 54), align 8, !tbaa !49
  %47 = getelementptr inbounds nuw %struct._zend_object, ptr %46, i32 0, i32 3
  %48 = load ptr, ptr %47, align 8, !tbaa !41
  %49 = load ptr, ptr @reflection_exception_ptr, align 8, !tbaa !4
  %50 = icmp eq ptr %48, %49
  br i1 %50, label %51, label %57

51:                                               ; preds = %45
  br label %52

52:                                               ; preds = %51
  %53 = load ptr, ptr getelementptr inbounds nuw (%struct._zend_executor_globals, ptr @executor_globals, i32 0, i32 54), align 8, !tbaa !49
  %54 = icmp ne ptr %53, null
  call void @llvm.assume(i1 %54)
  store i32 1, ptr %12, align 4
  br label %174

55:                                               ; No predecessors!
  br label %56

56:                                               ; preds = %55
  br label %57

57:                                               ; preds = %56, %45, %42
  call void (ptr, ptr, ...) @zend_throw_error(ptr noundef null, ptr noundef @.str.10)
  br label %58

58:                                               ; preds = %57
  %59 = load ptr, ptr getelementptr inbounds nuw (%struct._zend_executor_globals, ptr @executor_globals, i32 0, i32 54), align 8, !tbaa !49
  %60 = icmp ne ptr %59, null
  call void @llvm.assume(i1 %60)
  store i32 1, ptr %12, align 4
  br label %174

61:                                               ; No predecessors!
  br label %62

62:                                               ; preds = %61
  br label %63

63:                                               ; preds = %62, %32
  br label %64

64:                                               ; preds = %63
  br label %65

65:                                               ; preds = %64
  %66 = load ptr, ptr %5, align 8, !tbaa !30
  %67 = getelementptr inbounds nuw %struct.reflection_object, ptr %66, i32 0, i32 1
  %68 = load ptr, ptr %67, align 8, !tbaa !31
  store ptr %68, ptr %6, align 8, !tbaa !4
  br label %69

69:                                               ; preds = %65
  br label %70

70:                                               ; preds = %69
  %71 = load ptr, ptr %6, align 8, !tbaa !4
  %72 = call i32 @zend_update_class_constants(ptr noundef %71)
  %73 = icmp ne i32 %72, 0
  %74 = xor i1 %73, true
  %75 = xor i1 %74, true
  %76 = zext i1 %75 to i32
  %77 = sext i32 %76 to i64
  %78 = call i64 @llvm.expect.i64(i64 %77, i64 0)
  %79 = icmp ne i64 %78, 0
  br i1 %79, label %80, label %86

80:                                               ; preds = %70
  br label %81

81:                                               ; preds = %80
  %82 = load ptr, ptr getelementptr inbounds nuw (%struct._zend_executor_globals, ptr @executor_globals, i32 0, i32 54), align 8, !tbaa !49
  %83 = icmp ne ptr %82, null
  call void @llvm.assume(i1 %83)
  store i32 1, ptr %12, align 4
  br label %174

84:                                               ; No predecessors!
  br label %85

85:                                               ; preds = %84
  br label %86

86:                                               ; preds = %85, %70
  %87 = load ptr, ptr getelementptr inbounds nuw (%struct._zend_executor_globals, ptr @executor_globals, i32 0, i32 20), align 8, !tbaa !223
  store ptr %87, ptr %7, align 8, !tbaa !4
  %88 = load ptr, ptr %6, align 8, !tbaa !4
  store ptr %88, ptr getelementptr inbounds nuw (%struct._zend_executor_globals, ptr @executor_globals, i32 0, i32 20), align 8, !tbaa !223
  %89 = load ptr, ptr %6, align 8, !tbaa !4
  %90 = load ptr, ptr %9, align 8, !tbaa !38
  %91 = call ptr @zend_std_get_static_property_with_info(ptr noundef %89, ptr noundef %90, i32 noundef 1, ptr noundef %8)
  store ptr %91, ptr %10, align 8, !tbaa !9
  %92 = load ptr, ptr %7, align 8, !tbaa !4
  store ptr %92, ptr getelementptr inbounds nuw (%struct._zend_executor_globals, ptr @executor_globals, i32 0, i32 20), align 8, !tbaa !223
  %93 = load ptr, ptr %10, align 8, !tbaa !9
  %94 = icmp ne ptr %93, null
  br i1 %94, label %111, label %95

95:                                               ; preds = %86
  call void @zend_clear_exception()
  %96 = load ptr, ptr @reflection_exception_ptr, align 8, !tbaa !4
  %97 = load ptr, ptr %6, align 8, !tbaa !4
  %98 = getelementptr inbounds nuw %struct._zend_class_entry, ptr %97, i32 0, i32 1
  %99 = load ptr, ptr %98, align 8, !tbaa !37
  %100 = getelementptr inbounds nuw %struct._zend_string, ptr %99, i32 0, i32 3
  %101 = getelementptr inbounds [1 x i8], ptr %100, i64 0, i64 0
  %102 = load ptr, ptr %9, align 8, !tbaa !38
  %103 = getelementptr inbounds nuw %struct._zend_string, ptr %102, i32 0, i32 3
  %104 = getelementptr inbounds [1 x i8], ptr %103, i64 0, i64 0
  %105 = call ptr (ptr, i64, ptr, ...) @zend_throw_exception_ex(ptr noundef %96, i64 noundef 0, ptr noundef @.str.43, ptr noundef %101, ptr noundef %104)
  br label %106

106:                                              ; preds = %95
  %107 = load ptr, ptr getelementptr inbounds nuw (%struct._zend_executor_globals, ptr @executor_globals, i32 0, i32 54), align 8, !tbaa !49
  %108 = icmp ne ptr %107, null
  call void @llvm.assume(i1 %108)
  store i32 1, ptr %12, align 4
  br label %174

109:                                              ; No predecessors!
  br label %110

110:                                              ; preds = %109
  br label %111

111:                                              ; preds = %110, %86
  %112 = load ptr, ptr %10, align 8, !tbaa !9
  %113 = call zeroext i8 @zval_get_type(ptr noundef %112)
  %114 = zext i8 %113 to i32
  %115 = icmp eq i32 %114, 10
  br i1 %115, label %116, label %132

116:                                              ; preds = %111
  call void @llvm.lifetime.start.p0(i64 8, ptr %13) #14
  %117 = load ptr, ptr %10, align 8, !tbaa !9
  %118 = getelementptr inbounds nuw %struct._zval_struct, ptr %117, i32 0, i32 0
  %119 = load ptr, ptr %118, align 8, !tbaa !29
  store ptr %119, ptr %13, align 8, !tbaa !146
  %120 = load ptr, ptr %10, align 8, !tbaa !9
  %121 = getelementptr inbounds nuw %struct._zval_struct, ptr %120, i32 0, i32 0
  %122 = load ptr, ptr %121, align 8, !tbaa !29
  %123 = getelementptr inbounds nuw %struct._zend_reference, ptr %122, i32 0, i32 1
  store ptr %123, ptr %10, align 8, !tbaa !9
  %124 = load ptr, ptr %13, align 8, !tbaa !146
  %125 = load ptr, ptr %11, align 8, !tbaa !9
  %126 = call zeroext i1 @zend_verify_ref_assignable_zval(ptr noundef %124, ptr noundef %125, i1 noundef zeroext false)
  br i1 %126, label %128, label %127

127:                                              ; preds = %116
  store i32 1, ptr %12, align 4
  br label %129

128:                                              ; preds = %116
  store i32 0, ptr %12, align 4
  br label %129

129:                                              ; preds = %128, %127
  call void @llvm.lifetime.end.p0(i64 8, ptr %13) #14
  %130 = load i32, ptr %12, align 4
  switch i32 %130, label %174 [
    i32 0, label %131
  ]

131:                                              ; preds = %129
  br label %132

132:                                              ; preds = %131, %111
  %133 = load ptr, ptr %8, align 8, !tbaa !216
  %134 = getelementptr inbounds nuw %struct._zend_property_info, ptr %133, i32 0, i32 6
  %135 = getelementptr inbounds nuw %struct.zend_type, ptr %134, i32 0, i32 1
  %136 = load i32, ptr %135, align 8, !tbaa !222
  %137 = and i32 %136, 33554431
  %138 = icmp ne i32 %137, 0
  br i1 %138, label %139, label %144

139:                                              ; preds = %132
  %140 = load ptr, ptr %8, align 8, !tbaa !216
  %141 = load ptr, ptr %11, align 8, !tbaa !9
  %142 = call zeroext i1 @zend_verify_property_type(ptr noundef %140, ptr noundef %141, i1 noundef zeroext false)
  br i1 %142, label %144, label %143

143:                                              ; preds = %139
  store i32 1, ptr %12, align 4
  br label %174

144:                                              ; preds = %139, %132
  %145 = load ptr, ptr %10, align 8, !tbaa !9
  call void @zval_ptr_dtor(ptr noundef %145)
  br label %146

146:                                              ; preds = %144
  call void @llvm.lifetime.start.p0(i64 8, ptr %14) #14
  %147 = load ptr, ptr %10, align 8, !tbaa !9
  store ptr %147, ptr %14, align 8, !tbaa !9
  call void @llvm.lifetime.start.p0(i64 8, ptr %15) #14
  %148 = load ptr, ptr %11, align 8, !tbaa !9
  store ptr %148, ptr %15, align 8, !tbaa !9
  call void @llvm.lifetime.start.p0(i64 8, ptr %16) #14
  %149 = load ptr, ptr %15, align 8, !tbaa !9
  %150 = getelementptr inbounds nuw %struct._zval_struct, ptr %149, i32 0, i32 0
  %151 = load ptr, ptr %150, align 8, !tbaa !29
  store ptr %151, ptr %16, align 8, !tbaa !142
  call void @llvm.lifetime.start.p0(i64 4, ptr %17) #14
  %152 = load ptr, ptr %15, align 8, !tbaa !9
  %153 = getelementptr inbounds nuw %struct._zval_struct, ptr %152, i32 0, i32 1
  %154 = load i32, ptr %153, align 8, !tbaa !29
  store i32 %154, ptr %17, align 4, !tbaa !43
  br label %155

155:                                              ; preds = %146
  %156 = load ptr, ptr %16, align 8, !tbaa !142
  %157 = load ptr, ptr %14, align 8, !tbaa !9
  %158 = getelementptr inbounds nuw %struct._zval_struct, ptr %157, i32 0, i32 0
  store ptr %156, ptr %158, align 8, !tbaa !29
  %159 = load i32, ptr %17, align 4, !tbaa !43
  %160 = load ptr, ptr %14, align 8, !tbaa !9
  %161 = getelementptr inbounds nuw %struct._zval_struct, ptr %160, i32 0, i32 1
  store i32 %159, ptr %161, align 8, !tbaa !29
  br label %162

162:                                              ; preds = %155
  br label %163

163:                                              ; preds = %162
  %164 = load i32, ptr %17, align 4, !tbaa !43
  %165 = and i32 %164, 65280
  %166 = icmp ne i32 %165, 0
  br i1 %166, label %167, label %171

167:                                              ; preds = %163
  %168 = load ptr, ptr %16, align 8, !tbaa !142
  %169 = getelementptr inbounds nuw %struct._zend_refcounted, ptr %168, i32 0, i32 0
  %170 = call i32 @zend_gc_addref(ptr noundef %169)
  br label %171

171:                                              ; preds = %167, %163
  call void @llvm.lifetime.end.p0(i64 4, ptr %17) #14
  call void @llvm.lifetime.end.p0(i64 8, ptr %16) #14
  call void @llvm.lifetime.end.p0(i64 8, ptr %15) #14
  call void @llvm.lifetime.end.p0(i64 8, ptr %14) #14
  br label %172

172:                                              ; preds = %171
  br label %173

173:                                              ; preds = %172
  store i32 0, ptr %12, align 4
  br label %174

174:                                              ; preds = %173, %143, %129, %106, %81, %58, %52, %25
  call void @llvm.lifetime.end.p0(i64 8, ptr %11) #14
  call void @llvm.lifetime.end.p0(i64 8, ptr %10) #14
  call void @llvm.lifetime.end.p0(i64 8, ptr %9) #14
  call void @llvm.lifetime.end.p0(i64 8, ptr %8) #14
  call void @llvm.lifetime.end.p0(i64 8, ptr %7) #14
  call void @llvm.lifetime.end.p0(i64 8, ptr %6) #14
  call void @llvm.lifetime.end.p0(i64 8, ptr %5) #14
  %175 = load i32, ptr %12, align 4
  switch i32 %175, label %177 [
    i32 0, label %176
    i32 1, label %176
  ]

176:                                              ; preds = %174, %174
  ret void

177:                                              ; preds = %174
  unreachable
}