; Function Attrs: nounwind uwtable
define hidden void @zim_ReflectionClass_setStaticPropertyValue(ptr noundef readonly captures(none) %0, ptr readnone captures(none) %1) #0 {
  %3 = alloca ptr, align 8
  %4 = alloca ptr, align 8
  %5 = alloca ptr, align 8
  call void @llvm.lifetime.start.p0(i64 8, ptr nonnull %3) #13
  call void @llvm.lifetime.start.p0(i64 8, ptr nonnull %4) #13
  call void @llvm.lifetime.start.p0(i64 8, ptr nonnull %5) #13
  %6 = getelementptr inbounds nuw i8, ptr %0, i64 44
  %7 = load i32, ptr %6, align 4, !tbaa !26
  %8 = call i32 (i32, ptr, ...) @zend_parse_parameters(i32 noundef %7, ptr noundef nonnull @.str.42, ptr noundef nonnull %4, ptr noundef nonnull %5) #13
  %9 = icmp eq i32 %8, -1
  br i1 %9, label %10, label %13

10:                                               ; preds = %2
  %11 = load ptr, ptr getelementptr inbounds nuw (i8, ptr @executor_globals, i64 960), align 8, !tbaa !39
  %12 = icmp ne ptr %11, null
  call void @llvm.assume(i1 %12)
  br label %75

13:                                               ; preds = %2
  %14 = getelementptr inbounds nuw i8, ptr %0, i64 32
  %15 = load ptr, ptr %14, align 8, !tbaa !26
  %16 = getelementptr inbounds i8, ptr %15, i64 -24
  %17 = load ptr, ptr %16, align 8, !tbaa !27
  %18 = icmp eq ptr %17, null
  br i1 %18, label %19, label %29

19:                                               ; preds = %13
  %20 = load ptr, ptr getelementptr inbounds nuw (i8, ptr @executor_globals, i64 960), align 8, !tbaa !39
  %.not31 = icmp eq ptr %20, null
  br i1 %.not31, label %26, label %21

21:                                               ; preds = %19
  %22 = getelementptr inbounds nuw i8, ptr %20, i64 16
  %23 = load ptr, ptr %22, align 8, !tbaa !34
  %24 = load ptr, ptr @reflection_exception_ptr, align 8, !tbaa !38
  %25 = icmp eq ptr %23, %24
  br i1 %25, label %75, label %26

26:                                               ; preds = %21, %19
  call void (ptr, ptr, ...) @zend_throw_error(ptr noundef null, ptr noundef nonnull @.str.10) #13
  %27 = load ptr, ptr getelementptr inbounds nuw (i8, ptr @executor_globals, i64 960), align 8, !tbaa !39
  %28 = icmp ne ptr %27, null
  call void @llvm.assume(i1 %28)
  br label %75

29:                                               ; preds = %13
  %30 = call i32 @zend_update_class_constants(ptr noundef nonnull %17) #13
  %.not = icmp eq i32 %30, 0
  br i1 %.not, label %34, label %31, !prof !70

31:                                               ; preds = %29
  %32 = load ptr, ptr getelementptr inbounds nuw (i8, ptr @executor_globals, i64 960), align 8, !tbaa !39
  %33 = icmp ne ptr %32, null
  call void @llvm.assume(i1 %33)
  br label %75

34:                                               ; preds = %29
  %35 = load ptr, ptr getelementptr inbounds nuw (i8, ptr @executor_globals, i64 520), align 8, !tbaa !211
  store ptr %17, ptr getelementptr inbounds nuw (i8, ptr @executor_globals, i64 520), align 8, !tbaa !211
  %36 = load ptr, ptr %4, align 8, !tbaa !68
  %37 = call ptr @zend_std_get_static_property_with_info(ptr noundef nonnull %17, ptr noundef %36, i32 noundef 1, ptr noundef nonnull %3) #13
  store ptr %35, ptr getelementptr inbounds nuw (i8, ptr @executor_globals, i64 520), align 8, !tbaa !211
  %.not28 = icmp eq ptr %37, null
  br i1 %.not28, label %38, label %48

38:                                               ; preds = %34
  call void @zend_clear_exception() #13
  %39 = load ptr, ptr @reflection_exception_ptr, align 8, !tbaa !38
  %40 = getelementptr inbounds nuw i8, ptr %17, i64 8
  %41 = load ptr, ptr %40, align 8, !tbaa !36
  %42 = getelementptr inbounds nuw i8, ptr %41, i64 24
  %43 = load ptr, ptr %4, align 8, !tbaa !68
  %44 = getelementptr inbounds nuw i8, ptr %43, i64 24
  %45 = call ptr (ptr, i64, ptr, ...) @zend_throw_exception_ex(ptr noundef %39, i64 noundef 0, ptr noundef nonnull @.str.43, ptr noundef nonnull %42, ptr noundef nonnull %44) #13
  %46 = load ptr, ptr getelementptr inbounds nuw (i8, ptr @executor_globals, i64 960), align 8, !tbaa !39
  %47 = icmp ne ptr %46, null
  call void @llvm.assume(i1 %47)
  br label %75

48:                                               ; preds = %34
  %49 = getelementptr inbounds nuw i8, ptr %37, i64 8
  %50 = load i8, ptr %49, align 8, !tbaa !26
  %51 = icmp eq i8 %50, 10
  br i1 %51, label %52, label %57

52:                                               ; preds = %48
  %53 = load ptr, ptr %37, align 8, !tbaa !26
  %54 = getelementptr inbounds nuw i8, ptr %53, i64 8
  %55 = load ptr, ptr %5, align 8, !tbaa !156
  %56 = call zeroext i1 @zend_verify_ref_assignable_zval(ptr noundef %53, ptr noundef %55, i1 noundef zeroext false) #13
  br i1 %56, label %57, label %75

57:                                               ; preds = %52, %48
  %.0 = phi ptr [ %54, %52 ], [ %37, %48 ]
  %58 = load ptr, ptr %3, align 8, !tbaa !212
  %59 = getelementptr inbounds nuw i8, ptr %58, i64 48
  %60 = load i32, ptr %59, align 8, !tbaa !210
  %61 = and i32 %60, 33554431
  %.not29 = icmp eq i32 %61, 0
  br i1 %.not29, label %65, label %62

62:                                               ; preds = %57
  %63 = load ptr, ptr %5, align 8, !tbaa !156
  %64 = call zeroext i1 @zend_verify_property_type(ptr noundef nonnull %58, ptr noundef %63, i1 noundef zeroext false) #13
  br i1 %64, label %65, label %75

65:                                               ; preds = %62, %57
  call void @zval_ptr_dtor(ptr noundef nonnull %.0) #13
  %66 = load ptr, ptr %5, align 8, !tbaa !156
  %67 = load ptr, ptr %66, align 8, !tbaa !26
  %68 = getelementptr inbounds nuw i8, ptr %66, i64 8
  %69 = load i32, ptr %68, align 8, !tbaa !26
  store ptr %67, ptr %.0, align 8, !tbaa !26
  %70 = getelementptr inbounds nuw i8, ptr %.0, i64 8
  store i32 %69, ptr %70, align 8, !tbaa !26
  %71 = and i32 %69, 65280
  %.not30 = icmp eq i32 %71, 0
  br i1 %.not30, label %75, label %72

72:                                               ; preds = %65
  %73 = load i32, ptr %67, align 4, !tbaa !37
  %74 = add i32 %73, 1
  store i32 %74, ptr %67, align 4, !tbaa !37
  br label %75

75:                                               ; preds = %65, %72, %62, %21, %52, %38, %31, %26, %10
  call void @llvm.lifetime.end.p0(i64 8, ptr nonnull %5) #13
  call void @llvm.lifetime.end.p0(i64 8, ptr nonnull %4) #13
  call void @llvm.lifetime.end.p0(i64 8, ptr nonnull %3) #13
  ret void
}